target datalayout = "e-m:e-p270:32:32-p271:32:32-p272:64:64-i64:64-i128:128-f80:128-n8:16:32:64-S128"
target triple = "x86_64-pc-linux-gnu"

%"class.cv::Mat_" = type { %"class.cv::Mat" }
%"class.cv::Mat" = type { i32, i32, i32, i32, ptr, ptr, ptr, ptr, ptr, ptr, %"struct.cv::MatSize", %"struct.cv::MatStep" }
%"struct.cv::MatSize" = type { ptr }
%"struct.cv::MatStep" = type { ptr, [2 x i64] }
%"class.cv::Range" = type { i32, i32 }
%"class.cv::ParallelLoopBody" = type { ptr }
%"struct.cv::optflow::CalcGradRhoBody" = type { %"class.cv::ParallelLoopBody", %"class.cv::Mat_", %"class.cv::Mat_", %"class.cv::Mat_", %"class.cv::Mat_", %"class.cv::Mat_", %"class.cv::Mat_", %"class.cv::Mat_", %"class.cv::Mat_" }

; Function Attrs: inlinehint mustprogress nounwind uwtable
define linkonce_odr hidden noundef ptr @_ZN2cv4Mat_IfEixEi(ptr noundef nonnull align 8 dereferenceable(96) %0, i32 noundef %1) #6 comdat align 2 {
  %3 = alloca ptr, align 8
  %4 = alloca i32, align 4
  store ptr %0, ptr %3, align 8, !tbaa !86
  store i32 %1, ptr %4, align 4, !tbaa !55
  %5 = load ptr, ptr %3, align 8
  %6 = getelementptr inbounds nuw %"class.cv::Mat", ptr %5, i32 0, i32 4
  %7 = load ptr, ptr %6, align 8, !tbaa !112
  %8 = load i32, ptr %4, align 4, !tbaa !55
  %9 = sext i32 %8 to i64
  %10 = getelementptr inbounds nuw %"class.cv::Mat", ptr %5, i32 0, i32 11
  %11 = getelementptr inbounds nuw %"struct.cv::MatStep", ptr %10, i32 0, i32 0
  %12 = load ptr, ptr %11, align 8, !tbaa !113
  %13 = getelementptr inbounds i64, ptr %12, i64 0
  %14 = load i64, ptr %13, align 8, !tbaa !81
  %15 = mul i64 %9, %14
  %16 = getelementptr inbounds nuw i8, ptr %7, i64 %15
  ret ptr %16
}

; Function Attrs: inlinehint mustprogress nounwind uwtable
define linkonce_odr hidden noundef ptr @_ZNK2cv4Mat_IfEixEi(ptr noundef nonnull align 8 dereferenceable(96) %0, i32 noundef %1) #6 comdat align 2 {
  %3 = alloca ptr, align 8
  %4 = alloca i32, align 4
  store ptr %0, ptr %3, align 8, !tbaa !86
  store i32 %1, ptr %4, align 4, !tbaa !55
  %5 = load ptr, ptr %3, align 8
  %6 = getelementptr inbounds nuw %"class.cv::Mat", ptr %5, i32 0, i32 4
  %7 = load ptr, ptr %6, align 8, !tbaa !112
  %8 = load i32, ptr %4, align 4, !tbaa !55
  %9 = sext i32 %8 to i64
  %10 = getelementptr inbounds nuw %"class.cv::Mat", ptr %5, i32 0, i32 11
  %11 = getelementptr inbounds nuw %"struct.cv::MatStep", ptr %10, i32 0, i32 0
  %12 = load ptr, ptr %11, align 8, !tbaa !113
  %13 = getelementptr inbounds i64, ptr %12, i64 0
  %14 = load i64, ptr %13, align 8, !tbaa !81
  %15 = mul i64 %9, %14
  %16 = getelementptr inbounds nuw i8, ptr %7, i64 %15
  ret ptr %16
}

; Function Attrs: mustprogress uwtable
define hidden void @_ZNK2cv7optflow15CalcGradRhoBodyclERKNS_5RangeE(ptr noundef nonnull align 8 dereferenceable(776) %0, ptr noundef nonnull align 4 dereferenceable(8) %1) unnamed_addr #4 align 2 {
  %3 = alloca ptr, align 8
  %4 = alloca ptr, align 8
  %5 = alloca i32, align 4
  %6 = alloca i32, align 4
  %7 = alloca ptr, align 8
  %8 = alloca ptr, align 8
  %9 = alloca ptr, align 8
  %10 = alloca ptr, align 8
  %11 = alloca ptr, align 8
  %12 = alloca ptr, align 8
  %13 = alloca ptr, align 8
  %14 = alloca ptr, align 8
  %15 = alloca i32, align 4
  %16 = alloca float, align 4
  %17 = alloca float, align 4
  store ptr %0, ptr %3, align 8, !tbaa !126
  store ptr %1, ptr %4, align 8, !tbaa !103
  %18 = load ptr, ptr %3, align 8
  call void @llvm.lifetime.start.p0(i64 4, ptr %5) #3
  %19 = load ptr, ptr %4, align 8, !tbaa !103
  %20 = getelementptr inbounds nuw %"class.cv::Range", ptr %19, i32 0, i32 0
  %21 = load i32, ptr %20, align 4, !tbaa !105
  store i32 %21, ptr %5, align 4, !tbaa !55
  br label %22

22:                                               ; preds = %134, %2
  %23 = load i32, ptr %5, align 4, !tbaa !55
  %24 = load ptr, ptr %4, align 8, !tbaa !103
  %25 = getelementptr inbounds nuw %"class.cv::Range", ptr %24, i32 0, i32 1
  %26 = load i32, ptr %25, align 4, !tbaa !107
  %27 = icmp slt i32 %23, %26
  br i1 %27, label %29, label %28

28:                                               ; preds = %22
  store i32 2, ptr %6, align 4
  call void @llvm.lifetime.end.p0(i64 4, ptr %5) #3
  br label %137

29:                                               ; preds = %22
  call void @llvm.lifetime.start.p0(i64 8, ptr %7) #3
  %30 = getelementptr inbounds nuw %"struct.cv::optflow::CalcGradRhoBody", ptr %18, i32 0, i32 1
  %31 = load i32, ptr %5, align 4, !tbaa !55
  %32 = call noundef ptr @_ZNK2cv4Mat_IfEixEi(ptr noundef nonnull align 8 dereferenceable(96) %30, i32 noundef %31)
  store ptr %32, ptr %7, align 8, !tbaa !108
  call void @llvm.lifetime.start.p0(i64 8, ptr %8) #3
  %33 = getelementptr inbounds nuw %"struct.cv::optflow::CalcGradRhoBody", ptr %18, i32 0, i32 2
  %34 = load i32, ptr %5, align 4, !tbaa !55
  %35 = call noundef ptr @_ZNK2cv4Mat_IfEixEi(ptr noundef nonnull align 8 dereferenceable(96) %33, i32 noundef %34)
  store ptr %35, ptr %8, align 8, !tbaa !108
  call void @llvm.lifetime.start.p0(i64 8, ptr %9) #3
  %36 = getelementptr inbounds nuw %"struct.cv::optflow::CalcGradRhoBody", ptr %18, i32 0, i32 3
  %37 = load i32, ptr %5, align 4, !tbaa !55
  %38 = call noundef ptr @_ZNK2cv4Mat_IfEixEi(ptr noundef nonnull align 8 dereferenceable(96) %36, i32 noundef %37)
  store ptr %38, ptr %9, align 8, !tbaa !108
  call void @llvm.lifetime.start.p0(i64 8, ptr %10) #3
  %39 = getelementptr inbounds nuw %"struct.cv::optflow::CalcGradRhoBody", ptr %18, i32 0, i32 4
  %40 = load i32, ptr %5, align 4, !tbaa !55
  %41 = call noundef ptr @_ZNK2cv4Mat_IfEixEi(ptr noundef nonnull align 8 dereferenceable(96) %39, i32 noundef %40)
  store ptr %41, ptr %10, align 8, !tbaa !108
  call void @llvm.lifetime.start.p0(i64 8, ptr %11) #3
  %42 = getelementptr inbounds nuw %"struct.cv::optflow::CalcGradRhoBody", ptr %18, i32 0, i32 5
  %43 = load i32, ptr %5, align 4, !tbaa !55
  %44 = call noundef ptr @_ZNK2cv4Mat_IfEixEi(ptr noundef nonnull align 8 dereferenceable(96) %42, i32 noundef %43)
  store ptr %44, ptr %11, align 8, !tbaa !108
  call void @llvm.lifetime.start.p0(i64 8, ptr %12) #3
  %45 = getelementptr inbounds nuw %"struct.cv::optflow::CalcGradRhoBody", ptr %18, i32 0, i32 6
  %46 = load i32, ptr %5, align 4, !tbaa !55
  %47 = call noundef ptr @_ZNK2cv4Mat_IfEixEi(ptr noundef nonnull align 8 dereferenceable(96) %45, i32 noundef %46)
  store ptr %47, ptr %12, align 8, !tbaa !108
  call void @llvm.lifetime.start.p0(i64 8, ptr %13) #3
  %48 = getelementptr inbounds nuw %"struct.cv::optflow::CalcGradRhoBody", ptr %18, i32 0, i32 7
  %49 = load i32, ptr %5, align 4, !tbaa !55
  %50 = call noundef ptr @_ZN2cv4Mat_IfEixEi(ptr noundef nonnull align 8 dereferenceable(96) %48, i32 noundef %49)
  store ptr %50, ptr %13, align 8, !tbaa !108
  call void @llvm.lifetime.start.p0(i64 8, ptr %14) #3
  %51 = getelementptr inbounds nuw %"struct.cv::optflow::CalcGradRhoBody", ptr %18, i32 0, i32 8
  %52 = load i32, ptr %5, align 4, !tbaa !55
  %53 = call noundef ptr @_ZN2cv4Mat_IfEixEi(ptr noundef nonnull align 8 dereferenceable(96) %51, i32 noundef %52)
  store ptr %53, ptr %14, align 8, !tbaa !108
  call void @llvm.lifetime.start.p0(i64 4, ptr %15) #3
  store i32 0, ptr %15, align 4, !tbaa !55
  br label %54

54:                                               ; preds = %130, %29
  %55 = load i32, ptr %15, align 4, !tbaa !55
  %56 = getelementptr inbounds nuw %"struct.cv::optflow::CalcGradRhoBody", ptr %18, i32 0, i32 1
  %57 = getelementptr inbounds nuw %"class.cv::Mat", ptr %56, i32 0, i32 3
  %58 = load i32, ptr %57, align 4, !tbaa !56
  %59 = icmp slt i32 %55, %58
  br i1 %59, label %61, label %60

60:                                               ; preds = %54
  store i32 5, ptr %6, align 4
  call void @llvm.lifetime.end.p0(i64 4, ptr %15) #3
  br label %133

61:                                               ; preds = %54
  call void @llvm.lifetime.start.p0(i64 4, ptr %16) #3
  %62 = load ptr, ptr %9, align 8, !tbaa !108
  %63 = load i32, ptr %15, align 4, !tbaa !55
  %64 = sext i32 %63 to i64
  %65 = getelementptr inbounds float, ptr %62, i64 %64
  %66 = load float, ptr %65, align 4, !tbaa !91
  %67 = load ptr, ptr %9, align 8, !tbaa !108
  %68 = load i32, ptr %15, align 4, !tbaa !55
  %69 = sext i32 %68 to i64
  %70 = getelementptr inbounds float, ptr %67, i64 %69
  %71 = load float, ptr %70, align 4, !tbaa !91
  %72 = fmul float %66, %71
  store float %72, ptr %16, align 4, !tbaa !91
  call void @llvm.lifetime.start.p0(i64 4, ptr %17) #3
  %73 = load ptr, ptr %10, align 8, !tbaa !108
  %74 = load i32, ptr %15, align 4, !tbaa !55
  %75 = sext i32 %74 to i64
  %76 = getelementptr inbounds float, ptr %73, i64 %75
  %77 = load float, ptr %76, align 4, !tbaa !91
  %78 = load ptr, ptr %10, align 8, !tbaa !108
  %79 = load i32, ptr %15, align 4, !tbaa !55
  %80 = sext i32 %79 to i64
  %81 = getelementptr inbounds float, ptr %78, i64 %80
  %82 = load float, ptr %81, align 4, !tbaa !91
  %83 = fmul float %77, %82
  store float %83, ptr %17, align 4, !tbaa !91
  %84 = load float, ptr %16, align 4, !tbaa !91
  %85 = load float, ptr %17, align 4, !tbaa !91
  %86 = fadd float %84, %85
  %87 = load ptr, ptr %13, align 8, !tbaa !108
  %88 = load i32, ptr %15, align 4, !tbaa !55
  %89 = sext i32 %88 to i64
  %90 = getelementptr inbounds float, ptr %87, i64 %89
  store float %86, ptr %90, align 4, !tbaa !91
  %91 = load ptr, ptr %8, align 8, !tbaa !108
  %92 = load i32, ptr %15, align 4, !tbaa !55
  %93 = sext i32 %92 to i64
  %94 = getelementptr inbounds float, ptr %91, i64 %93
  %95 = load float, ptr %94, align 4, !tbaa !91
  %96 = load ptr, ptr %9, align 8, !tbaa !108
  %97 = load i32, ptr %15, align 4, !tbaa !55
  %98 = sext i32 %97 to i64
  %99 = getelementptr inbounds float, ptr %96, i64 %98
  %100 = load float, ptr %99, align 4, !tbaa !91
  %101 = load ptr, ptr %11, align 8, !tbaa !108
  %102 = load i32, ptr %15, align 4, !tbaa !55
  %103 = sext i32 %102 to i64
  %104 = getelementptr inbounds float, ptr %101, i64 %103
  %105 = load float, ptr %104, align 4, !tbaa !91
  %106 = fneg float %100
  %107 = call float @llvm.fmuladd.f32(float %106, float %105, float %95)
  %108 = load ptr, ptr %10, align 8, !tbaa !108
  %109 = load i32, ptr %15, align 4, !tbaa !55
  %110 = sext i32 %109 to i64
  %111 = getelementptr inbounds float, ptr %108, i64 %110
  %112 = load float, ptr %111, align 4, !tbaa !91
  %113 = load ptr, ptr %12, align 8, !tbaa !108
  %114 = load i32, ptr %15, align 4, !tbaa !55
  %115 = sext i32 %114 to i64
  %116 = getelementptr inbounds float, ptr %113, i64 %115
  %117 = load float, ptr %116, align 4, !tbaa !91
  %118 = fneg float %112
  %119 = call float @llvm.fmuladd.f32(float %118, float %117, float %107)
  %120 = load ptr, ptr %7, align 8, !tbaa !108
  %121 = load i32, ptr %15, align 4, !tbaa !55
  %122 = sext i32 %121 to i64
  %123 = getelementptr inbounds float, ptr %120, i64 %122
  %124 = load float, ptr %123, align 4, !tbaa !91
  %125 = fsub float %119, %124
  %126 = load ptr, ptr %14, align 8, !tbaa !108
  %127 = load i32, ptr %15, align 4, !tbaa !55
  %128 = sext i32 %127 to i64
  %129 = getelementptr inbounds float, ptr %126, i64 %128
  store float %125, ptr %129, align 4, !tbaa !91
  call void @llvm.lifetime.end.p0(i64 4, ptr %17) #3
  call void @llvm.lifetime.end.p0(i64 4, ptr %16) #3
  br label %130

130:                                              ; preds = %61
  %131 = load i32, ptr %15, align 4, !tbaa !55
  %132 = add nsw i32 %131, 1
  store i32 %132, ptr %15, align 4, !tbaa !55
  br label %54, !llvm.loop !128

133:                                              ; preds = %60
  call void @llvm.lifetime.end.p0(i64 8, ptr %14) #3
  call void @llvm.lifetime.end.p0(i64 8, ptr %13) #3
  call void @llvm.lifetime.end.p0(i64 8, ptr %12) #3
  call void @llvm.lifetime.end.p0(i64 8, ptr %11) #3
  call void @llvm.lifetime.end.p0(i64 8, ptr %10) #3
  call void @llvm.lifetime.end.p0(i64 8, ptr %9) #3
  call void @llvm.lifetime.end.p0(i64 8, ptr %8) #3
  call void @llvm.lifetime.end.p0(i64 8, ptr %7) #3
  br label %134

134:                                              ; preds = %133
  %135 = load i32, ptr %5, align 4, !tbaa !55
  %136 = add nsw i32 %135, 1
  store i32 %136, ptr %5, align 4, !tbaa !55
  br label %22, !llvm.loop !129

137:                                              ; preds = %28
  ret void
}