; Function Attrs: mustprogress nofree norecurse nosync nounwind memory(readwrite, inaccessiblemem: none) uwtable
define hidden void @_ZNK2cv7optflow15CalcGradRhoBodyclERKNS_5RangeE(ptr noundef nonnull readonly align 8 captures(none) dereferenceable(776) %0, ptr noundef nonnull readonly align 4 captures(none) dereferenceable(8) %1) unnamed_addr #7 align 2 {
  %3 = load i32, ptr %1, align 4, !tbaa !95
  %4 = getelementptr inbounds nuw i8, ptr %1, i64 4
  %5 = load i32, ptr %4, align 4, !tbaa !97
  %6 = icmp slt i32 %3, %5
  br i1 %6, label %.lr.ph44, label %._crit_edge45

.lr.ph44:                                         ; preds = %2
  %7 = getelementptr inbounds nuw i8, ptr %0, i64 24
  %8 = load ptr, ptr %7, align 8, !tbaa !98
  %9 = getelementptr inbounds nuw i8, ptr %0, i64 80
  %10 = load ptr, ptr %9, align 8, !tbaa !99
  %11 = load i64, ptr %10, align 8, !tbaa !100
  %12 = getelementptr inbounds nuw i8, ptr %0, i64 120
  %13 = load ptr, ptr %12, align 8, !tbaa !98
  %14 = getelementptr inbounds nuw i8, ptr %0, i64 176
  %15 = load ptr, ptr %14, align 8, !tbaa !99
  %16 = load i64, ptr %15, align 8, !tbaa !100
  %17 = getelementptr inbounds nuw i8, ptr %0, i64 216
  %18 = load ptr, ptr %17, align 8, !tbaa !98
  %19 = getelementptr inbounds nuw i8, ptr %0, i64 272
  %20 = load ptr, ptr %19, align 8, !tbaa !99
  %21 = load i64, ptr %20, align 8, !tbaa !100
  %22 = getelementptr inbounds nuw i8, ptr %0, i64 312
  %23 = load ptr, ptr %22, align 8, !tbaa !98
  %24 = getelementptr inbounds nuw i8, ptr %0, i64 368
  %25 = load ptr, ptr %24, align 8, !tbaa !99
  %26 = load i64, ptr %25, align 8, !tbaa !100
  %27 = getelementptr inbounds nuw i8, ptr %0, i64 408
  %28 = load ptr, ptr %27, align 8, !tbaa !98
  %29 = getelementptr inbounds nuw i8, ptr %0, i64 464
  %30 = load ptr, ptr %29, align 8, !tbaa !99
  %31 = load i64, ptr %30, align 8, !tbaa !100
  %32 = getelementptr inbounds nuw i8, ptr %0, i64 504
  %33 = load ptr, ptr %32, align 8, !tbaa !98
  %34 = getelementptr inbounds nuw i8, ptr %0, i64 560
  %35 = load ptr, ptr %34, align 8, !tbaa !99
  %36 = load i64, ptr %35, align 8, !tbaa !100
  %37 = getelementptr inbounds nuw i8, ptr %0, i64 600
  %38 = load ptr, ptr %37, align 8, !tbaa !98
  %39 = getelementptr inbounds nuw i8, ptr %0, i64 656
  %40 = load ptr, ptr %39, align 8, !tbaa !99
  %41 = load i64, ptr %40, align 8, !tbaa !100
  %42 = getelementptr inbounds nuw i8, ptr %0, i64 696
  %43 = load ptr, ptr %42, align 8, !tbaa !98
  %44 = getelementptr inbounds nuw i8, ptr %0, i64 752
  %45 = load ptr, ptr %44, align 8, !tbaa !99
  %46 = load i64, ptr %45, align 8, !tbaa !100
  %47 = getelementptr inbounds nuw i8, ptr %0, i64 20
  %48 = load i32, ptr %47, align 4, !tbaa !71
  %49 = icmp sgt i32 %48, 0
  br i1 %49, label %.lr.ph.us.preheader, label %._crit_edge45

.lr.ph.us.preheader:                              ; preds = %.lr.ph44
  %50 = sext i32 %3 to i64
  %wide.trip.count51 = sext i32 %5 to i64
  %wide.trip.count = zext nneg i32 %48 to i64
  br label %.lr.ph.us

.lr.ph.us:                                        ; preds = %.lr.ph.us.preheader, %._crit_edge.us
  %indvars.iv48 = phi i64 [ %50, %.lr.ph.us.preheader ], [ %indvars.iv.next49, %._crit_edge.us ]
  %51 = mul i64 %11, %indvars.iv48
  %52 = getelementptr inbounds nuw i8, ptr %8, i64 %51
  %53 = mul i64 %16, %indvars.iv48
  %54 = getelementptr inbounds nuw i8, ptr %13, i64 %53
  %55 = mul i64 %21, %indvars.iv48
  %56 = getelementptr inbounds nuw i8, ptr %18, i64 %55
  %57 = mul i64 %26, %indvars.iv48
  %58 = getelementptr inbounds nuw i8, ptr %23, i64 %57
  %59 = mul i64 %31, %indvars.iv48
  %60 = getelementptr inbounds nuw i8, ptr %28, i64 %59
  %61 = mul i64 %36, %indvars.iv48
  %62 = getelementptr inbounds nuw i8, ptr %33, i64 %61
  %63 = mul i64 %41, %indvars.iv48
  %64 = getelementptr inbounds nuw i8, ptr %38, i64 %63
  %65 = mul i64 %46, %indvars.iv48
  %66 = getelementptr inbounds nuw i8, ptr %43, i64 %65
  br label %67

67:                                               ; preds = %.lr.ph.us, %67
  %indvars.iv = phi i64 [ 0, %.lr.ph.us ], [ %indvars.iv.next, %67 ]
  %68 = getelementptr inbounds nuw float, ptr %56, i64 %indvars.iv
  %69 = load float, ptr %68, align 4, !tbaa !101
  %70 = fmul float %69, %69
  %71 = getelementptr inbounds nuw float, ptr %58, i64 %indvars.iv
  %72 = load float, ptr %71, align 4, !tbaa !101
  %73 = fmul float %72, %72
  %74 = fadd float %70, %73
  %75 = getelementptr inbounds nuw float, ptr %64, i64 %indvars.iv
  store float %74, ptr %75, align 4, !tbaa !101
  %76 = getelementptr inbounds nuw float, ptr %54, i64 %indvars.iv
  %77 = load float, ptr %76, align 4, !tbaa !101
  %78 = load float, ptr %68, align 4, !tbaa !101
  %79 = getelementptr inbounds nuw float, ptr %60, i64 %indvars.iv
  %80 = load float, ptr %79, align 4, !tbaa !101
  %81 = fneg float %78
  %82 = tail call float @llvm.fmuladd.f32(float %81, float %80, float %77)
  %83 = load float, ptr %71, align 4, !tbaa !101
  %84 = getelementptr inbounds nuw float, ptr %62, i64 %indvars.iv
  %85 = load float, ptr %84, align 4, !tbaa !101
  %86 = fneg float %83
  %87 = tail call float @llvm.fmuladd.f32(float %86, float %85, float %82)
  %88 = getelementptr inbounds nuw float, ptr %52, i64 %indvars.iv
  %89 = load float, ptr %88, align 4, !tbaa !101
  %90 = fsub float %87, %89
  %91 = getelementptr inbounds nuw float, ptr %66, i64 %indvars.iv
  store float %90, ptr %91, align 4, !tbaa !101
  %indvars.iv.next = add nuw nsw i64 %indvars.iv, 1
  %exitcond.not = icmp eq i64 %indvars.iv.next, %wide.trip.count
  br i1 %exitcond.not, label %._crit_edge.us, label %67, !llvm.loop !125

._crit_edge.us:                                   ; preds = %67
  %indvars.iv.next49 = add nsw i64 %indvars.iv48, 1
  %exitcond52.not = icmp eq i64 %indvars.iv.next49, %wide.trip.count51
  br i1 %exitcond52.not, label %._crit_edge45, label %.lr.ph.us, !llvm.loop !126

._crit_edge45:                                    ; preds = %._crit_edge.us, %.lr.ph44, %2
  ret void
}